; ModuleID = '51/140.c'
source_filename = "51/140.c"
target datalayout = "e-m:e-p270:32:32-p271:32:32-p272:64:64-i64:64-f80:128-n8:16:32:64-S128"
target triple = "x86_64-pc-linux-gnu"

@.str = private unnamed_addr constant [6 x i8] c"%d %s\00", align 1
@.str.1 = private unnamed_addr constant [3 x i8] c"NO\00", align 1
@.str.2 = private unnamed_addr constant [4 x i8] c"%d\0A\00", align 1
@.str.3 = private unnamed_addr constant [4 x i8] c"%s\0A\00", align 1

; Function Attrs: noinline nounwind uwtable
define dso_local void @main() #0 {
  %1 = alloca i32, align 4
  %2 = alloca i32, align 4
  %3 = alloca i32, align 4
  %4 = alloca i32, align 4
  %5 = alloca i32, align 4
  %6 = alloca i32, align 4
  %7 = alloca i32, align 4
  %8 = alloca [250 x i32], align 16
  %9 = alloca [500 x i8], align 16
  %10 = alloca [250 x [5 x i8]], align 16
  store i32 0, i32* %3, align 4
  store i32 0, i32* %5, align 4
  store i32 0, i32* %7, align 4
  %11 = getelementptr inbounds [500 x i8], [500 x i8]* %9, i64 0, i64 0
  %12 = call i32 (i8*, ...) @__isoc99_scanf(i8* getelementptr inbounds ([6 x i8], [6 x i8]* @.str, i64 0, i64 0), i32* %1, i8* %11)
  %13 = getelementptr inbounds [500 x i8], [500 x i8]* %9, i64 0, i64 0
  %14 = call i64 @strlen(i8* %13) #3
  %15 = trunc i64 %14 to i32
  store i32 %15, i32* %4, align 4
  store i32 0, i32* %2, align 4
  br label %16

16:                                               ; preds = %50, %0
  %17 = load i32, i32* %2, align 4
  %18 = load i32, i32* %4, align 4
  %19 = load i32, i32* %1, align 4
  %20 = sub nsw i32 %18, %19
  %21 = icmp sle i32 %17, %20
  br i1 %21, label %22, label %53

22:                                               ; preds = %16
  store i32 0, i32* %3, align 4
  br label %23

23:                                               ; preds = %40, %22
  %24 = load i32, i32* %3, align 4
  %25 = load i32, i32* %1, align 4
  %26 = icmp slt i32 %24, %25
  br i1 %26, label %27, label %43

27:                                               ; preds = %23
  %28 = load i32, i32* %2, align 4
  %29 = load i32, i32* %3, align 4
  %30 = add nsw i32 %28, %29
  %31 = sext i32 %30 to i64
  %32 = getelementptr inbounds [500 x i8], [500 x i8]* %9, i64 0, i64 %31
  %33 = load i8, i8* %32, align 1
  %34 = load i32, i32* %2, align 4
  %35 = sext i32 %34 to i64
  %36 = getelementptr inbounds [250 x [5 x i8]], [250 x [5 x i8]]* %10, i64 0, i64 %35
  %37 = load i32, i32* %3, align 4
  %38 = sext i32 %37 to i64
  %39 = getelementptr inbounds [5 x i8], [5 x i8]* %36, i64 0, i64 %38
  store i8 %33, i8* %39, align 1
  br label %40

40:                                               ; preds = %27
  %41 = load i32, i32* %3, align 4
  %42 = add nsw i32 %41, 1
  store i32 %42, i32* %3, align 4
  br label %23

43:                                               ; preds = %23
  %44 = load i32, i32* %2, align 4
  %45 = sext i32 %44 to i64
  %46 = getelementptr inbounds [250 x [5 x i8]], [250 x [5 x i8]]* %10, i64 0, i64 %45
  %47 = load i32, i32* %1, align 4
  %48 = sext i32 %47 to i64
  %49 = getelementptr inbounds [5 x i8], [5 x i8]* %46, i64 0, i64 %48
  store i8 0, i8* %49, align 1
  br label %50

50:                                               ; preds = %43
  %51 = load i32, i32* %2, align 4
  %52 = add nsw i32 %51, 1
  store i32 %52, i32* %2, align 4
  br label %16

53:                                               ; preds = %16
  store i32 0, i32* %2, align 4
  br label %54

54:                                               ; preds = %109, %53
  %55 = load i32, i32* %2, align 4
  %56 = load i32, i32* %4, align 4
  %57 = load i32, i32* %1, align 4
  %58 = sub nsw i32 %56, %57
  %59 = icmp sle i32 %55, %58
  br i1 %59, label %60, label %112

60:                                               ; preds = %54
  store i32 0, i32* %6, align 4
  %61 = load i32, i32* %2, align 4
  %62 = add nsw i32 %61, 1
  store i32 %62, i32* %3, align 4
  br label %63

63:                                               ; preds = %89, %60
  %64 = load i32, i32* %3, align 4
  %65 = load i32, i32* %4, align 4
  %66 = load i32, i32* %1, align 4
  %67 = sub nsw i32 %65, %66
  %68 = icmp sle i32 %64, %67
  br i1 %68, label %69, label %92

69:                                               ; preds = %63
  %70 = load i32, i32* %2, align 4
  %71 = sext i32 %70 to i64
  %72 = getelementptr inbounds [250 x [5 x i8]], [250 x [5 x i8]]* %10, i64 0, i64 %71
  %73 = getelementptr inbounds [5 x i8], [5 x i8]* %72, i64 0, i64 0
  %74 = load i32, i32* %3, align 4
  %75 = sext i32 %74 to i64
  %76 = getelementptr inbounds [250 x [5 x i8]], [250 x [5 x i8]]* %10, i64 0, i64 %75
  %77 = getelementptr inbounds [5 x i8], [5 x i8]* %76, i64 0, i64 0
  %78 = call i32 @strcmp(i8* %73, i8* %77) #3
  %79 = icmp eq i32 %78, 0
  br i1 %79, label %80, label %88

80:                                               ; preds = %69
  %81 = load i32, i32* %6, align 4
  %82 = icmp eq i32 %81, 0
  br i1 %82, label %83, label %84

83:                                               ; preds = %80
  store i32 2, i32* %6, align 4
  br label %87

84:                                               ; preds = %80
  %85 = load i32, i32* %6, align 4
  %86 = add nsw i32 %85, 1
  store i32 %86, i32* %6, align 4
  br label %87

87:                                               ; preds = %84, %83
  br label %88

88:                                               ; preds = %87, %69
  br label %89

89:                                               ; preds = %88
  %90 = load i32, i32* %3, align 4
  %91 = add nsw i32 %90, 1
  store i32 %91, i32* %3, align 4
  br label %63

92:                                               ; preds = %63
  %93 = load i32, i32* %6, align 4
  %94 = load i32, i32* %2, align 4
  %95 = sext i32 %94 to i64
  %96 = getelementptr inbounds [250 x i32], [250 x i32]* %8, i64 0, i64 %95
  store i32 %93, i32* %96, align 4
  %97 = load i32, i32* %2, align 4
  %98 = sext i32 %97 to i64
  %99 = getelementptr inbounds [250 x i32], [250 x i32]* %8, i64 0, i64 %98
  %100 = load i32, i32* %99, align 4
  %101 = load i32, i32* %7, align 4
  %102 = icmp sgt i32 %100, %101
  br i1 %102, label %103, label %108

103:                                              ; preds = %92
  %104 = load i32, i32* %2, align 4
  %105 = sext i32 %104 to i64
  %106 = getelementptr inbounds [250 x i32], [250 x i32]* %8, i64 0, i64 %105
  %107 = load i32, i32* %106, align 4
  store i32 %107, i32* %7, align 4
  br label %108

108:                                              ; preds = %103, %92
  br label %109

109:                                              ; preds = %108
  %110 = load i32, i32* %2, align 4
  %111 = add nsw i32 %110, 1
  store i32 %111, i32* %2, align 4
  br label %54

112:                                              ; preds = %54
  %113 = load i32, i32* %7, align 4
  %114 = icmp eq i32 %113, 0
  br i1 %114, label %115, label %117

115:                                              ; preds = %112
  %116 = call i32 (i8*, ...) @printf(i8* getelementptr inbounds ([3 x i8], [3 x i8]* @.str.1, i64 0, i64 0))
  br label %144

117:                                              ; preds = %112
  %118 = load i32, i32* %7, align 4
  %119 = call i32 (i8*, ...) @printf(i8* getelementptr inbounds ([4 x i8], [4 x i8]* @.str.2, i64 0, i64 0), i32 %118)
  store i32 0, i32* %2, align 4
  br label %120

120:                                              ; preds = %140, %117
  %121 = load i32, i32* %2, align 4
  %122 = load i32, i32* %4, align 4
  %123 = load i32, i32* %1, align 4
  %124 = sub nsw i32 %122, %123
  %125 = icmp sle i32 %121, %124
  br i1 %125, label %126, label %143

126:                                              ; preds = %120
  %127 = load i32, i32* %2, align 4
  %128 = sext i32 %127 to i64
  %129 = getelementptr inbounds [250 x i32], [250 x i32]* %8, i64 0, i64 %128
  %130 = load i32, i32* %129, align 4
  %131 = load i32, i32* %7, align 4
  %132 = icmp eq i32 %130, %131
  br i1 %132, label %133, label %139

133:                                              ; preds = %126
  %134 = load i32, i32* %2, align 4
  %135 = sext i32 %134 to i64
  %136 = getelementptr inbounds [250 x [5 x i8]], [250 x [5 x i8]]* %10, i64 0, i64 %135
  %137 = getelementptr inbounds [5 x i8], [5 x i8]* %136, i64 0, i64 0
  %138 = call i32 (i8*, ...) @printf(i8* getelementptr inbounds ([4 x i8], [4 x i8]* @.str.3, i64 0, i64 0), i8* %137)
  br label %139

139:                                              ; preds = %133, %126
  br label %140

140:                                              ; preds = %139
  %141 = load i32, i32* %2, align 4
  %142 = add nsw i32 %141, 1
  store i32 %142, i32* %2, align 4
  br label %120

143:                                              ; preds = %120
  br label %144

144:                                              ; preds = %143, %115
  ret void
}

declare dso_local i32 @__isoc99_scanf(i8*, ...) #1

; Function Attrs: nounwind readonly
declare dso_local i64 @strlen(i8*) #2

; Function Attrs: nounwind readonly
declare dso_local i32 @strcmp(i8*, i8*) #2

declare dso_local i32 @printf(i8*, ...) #1


!llvm.module.flags = !{!0}
!llvm.ident = !{!1}

!0 = !{i32 1, !"wchar_size", i32 4}
!1 = !{!"clang version 10.0.0-4ubuntu1 "}
